target datalayout = "e-m:e-p270:32:32-p271:32:32-p272:64:64-i64:64-i128:128-f80:128-n8:16:32:64-S128"
target triple = "x86_64-pc-linux-gnu"

%struct.Curl_cftype = type { ptr, i32, i32, ptr, ptr, ptr, ptr, ptr, ptr, ptr, ptr, ptr, ptr, ptr, ptr, ptr }
%struct.Curl_sockaddr_ex = type { i32, i32, i32, i32, %union.anon }
%union.anon = type { %struct.Curl_sockaddr_storage }
%struct.Curl_sockaddr_storage = type { %union.anon.0 }
%union.anon.0 = type { %struct.sockaddr_storage }
%struct.sockaddr_storage = type { i16, [118 x i8], i64 }
%struct.Curl_easy = type { i32, i64, i64, ptr, %struct.Curl_llist_node, %struct.Curl_llist_node, i32, i32, %struct.Curl_message, %struct.easy_pollset, %struct.Names, ptr, ptr, ptr, ptr, %struct.SingleRequest, %struct.UserDefined, ptr, ptr, ptr, %struct.Progress, %struct.UrlState, ptr, %struct.PureInfo, %struct.curl_tlssessioninfo }
%struct.Curl_llist_node = type { ptr, ptr, ptr, ptr }
%struct.Curl_message = type { %struct.Curl_llist_node, %struct.CURLMsg }
%struct.CURLMsg = type { i32, ptr, %union.anon.3 }
%union.anon.3 = type { ptr }
%struct.easy_pollset = type { [5 x i32], i32, [5 x i8] }
%struct.Names = type { ptr, i32 }
%struct.SingleRequest = type <{ i64, i64, i64, i64, %struct.curltime, i32, i32, i32, i32, i64, i32, i32, i8, i8, [2 x i8], i32, ptr, ptr, %struct.bufq, i64, i64, ptr, ptr, %union.anon.4, ptr, i8, i32, [3 x i8] }>
%struct.curltime = type { i64, i32 }
%struct.bufq = type { ptr, ptr, ptr, ptr, i64, i64, i64, i32 }
%union.anon.4 = type { ptr }
%struct.UserDefined = type <{ ptr, ptr, ptr, ptr, ptr, ptr, i64, i64, i64, ptr, ptr, i64, ptr, ptr, ptr, ptr, ptr, ptr, ptr, ptr, ptr, ptr, ptr, ptr, ptr, ptr, ptr, ptr, ptr, ptr, ptr, ptr, ptr, ptr, ptr, i64, i64, i64, i64, i64, i64, i64, i64, i64, ptr, ptr, %struct.curl_mimepart, ptr, ptr, ptr, i64, %struct.ssl_config_data, %struct.ssl_config_data, ptr, i16, i8, i8, %struct.ssl_general_config, i32, i32, i32, [4 x i8], ptr, ptr, i64, i32, i8, i8, i8, i8, ptr, ptr, ptr, i32, [4 x i8], [74 x ptr], [8 x ptr], i32, i32, i32, [4 x i8], ptr, i32, [4 x i8], ptr, ptr, ptr, ptr, ptr, i32, i32, i32, i32, i32, i32, i32, i32, i64, ptr, ptr, i64, ptr, i64, ptr, ptr, ptr, ptr, i32, i16, i16, i16, i8, i8, i8, i8, i8, i8, i8, i8, i64, [6 x i8] }>
%struct.curl_mimepart = type { ptr, ptr, i32, i32, ptr, ptr, ptr, ptr, ptr, ptr, ptr, ptr, ptr, ptr, ptr, i64, %struct.mime_state, ptr, %struct.mime_encoder_state, i64 }
%struct.mime_state = type { i32, ptr, i64 }
%struct.mime_encoder_state = type { i64, i64, i64, [256 x i8] }
%struct.ssl_config_data = type { %struct.ssl_primary_config, i64, ptr, ptr, ptr, ptr, ptr, ptr, ptr, i16 }
%struct.ssl_primary_config = type { ptr, ptr, ptr, ptr, ptr, ptr, ptr, ptr, ptr, ptr, ptr, ptr, ptr, ptr, i8, i32, i8, i8 }
%struct.ssl_general_config = type { i32 }
%struct.Progress = type { i64, %struct.pgrs_dir, %struct.pgrs_dir, i64, i64, i32, i32, i64, i64, i64, i64, i64, i64, i64, i64, i64, %struct.curltime, %struct.curltime, %struct.curltime, %struct.curltime, %struct.curltime, [6 x i64], [6 x %struct.curltime], i32, i8 }
%struct.pgrs_dir = type { i64, i64, i64, %struct.pgrs_measure }
%struct.pgrs_measure = type { %struct.curltime, i64 }
%struct.UrlState = type { %struct.curltime, i64, i64, %struct.dynbuf, ptr, i64, ptr, i32, i32, i32, ptr, i32, i64, i32, ptr, %struct.digestdata, %struct.digestdata, %struct.auth, %struct.auth, %struct.Curl_async, ptr, i8, %struct.curltime, %struct.Curl_tree, %struct.Curl_llist, [15 x %struct.time_node], ptr, ptr, i64, i64, i64, i64, [32 x i8], i64, ptr, ptr, ptr, %struct.urlpieces, ptr, ptr, ptr, ptr, ptr, i64, %struct.dynbuf, %struct.Curl_llist, [2 x %struct.curl_header], ptr, i32, ptr, ptr, %struct.store_netrc, %struct.dynamically_allocated_data, i8, i8, i8, i8, i32 }
%struct.digestdata = type { ptr, ptr, ptr, ptr, ptr, ptr, i32, i8, i8 }
%struct.auth = type { i64, i64, i64, i8 }
%struct.Curl_async = type { ptr, ptr, ptr, ptr, i32, i32, i8 }
%struct.Curl_tree = type { ptr, ptr, ptr, ptr, %struct.curltime, ptr }
%struct.time_node = type { %struct.Curl_llist_node, %struct.curltime, i32 }
%struct.urlpieces = type { ptr, ptr, ptr, ptr, ptr, ptr, ptr, ptr }
%struct.dynbuf = type { ptr, i64, i64, i64 }
%struct.Curl_llist = type { ptr, ptr, ptr, i64 }
%struct.curl_header = type { ptr, ptr, i64, i64, i32, ptr }
%struct.store_netrc = type { %struct.dynbuf, ptr, i8 }
%struct.dynamically_allocated_data = type { ptr, ptr, ptr, ptr, ptr, ptr, ptr, ptr, ptr, ptr, ptr, ptr, ptr, ptr }
%struct.PureInfo = type { i32, i32, i32, i64, i64, i64, i64, i64, i64, i64, ptr, ptr, i64, i32, %struct.ip_quadruple, i32, ptr, i32, %struct.curl_certinfo, i32, i8 }
%struct.ip_quadruple = type { [46 x i8], [46 x i8], i32, i32 }
%struct.curl_certinfo = type { i32, ptr }
%struct.curl_tlssessioninfo = type { i32, ptr }
%struct.connectdata = type { %struct.Curl_llist_node, ptr, ptr, i64, ptr, i64, ptr, ptr, %struct.hostname, ptr, ptr, %struct.hostname, %struct.proxy_info, %struct.proxy_info, %struct.ip_quadruple, %struct.ip_quadruple, ptr, ptr, ptr, ptr, ptr, %struct.curltime, %struct.curltime, %struct.curltime, [2 x i32], [2 x ptr], [2 x ptr], [2 x ptr], %struct.anon, %struct.easy_pollset, %struct.ssl_primary_config, %struct.ssl_primary_config, %struct.ConnectBits, ptr, ptr, %struct.curltime, i32, i32, %struct.Curl_llist, i32, i32, %struct.ntlmdata, %struct.ntlmdata, %union.anon.2, ptr, ptr, i16, i32, i32, i32, i32, i16, i16, i8, i8, i8, i8, i8, i8, i8 }
%struct.hostname = type { ptr, ptr, ptr, ptr }
%struct.proxy_info = type { %struct.hostname, i32, i8, ptr, ptr }
%struct.anon = type { [2 x %struct.curltime], i32 }
%struct.ConnectBits = type { i64 }
%struct.ntlmdata = type { i32, [8 x i8], i32, ptr }
%union.anon.2 = type { %struct.ftp_conn }
%struct.ftp_conn = type { %struct.pingpong, ptr, ptr, ptr, ptr, ptr, ptr, ptr, i8, i64, ptr, i64, i32, i32, i32, i32, i32, i16, i8, i8, i8, i8, i8 }
%struct.pingpong = type { i64, i8, ptr, i64, i64, %struct.curltime, i64, %struct.dynbuf, %struct.dynbuf, i64, i64, ptr, ptr }
%struct.Curl_cfilter = type { ptr, ptr, ptr, ptr, i32, i8 }
%struct.curl_trc_feat = type { ptr, i32 }
%struct.cf_socket_ctx = type { i32, %struct.Curl_sockaddr_ex, i32, %struct.ip_quadruple, %struct.curltime, %struct.curltime, %struct.curltime, i32, i8 }

@.str.34 = private unnamed_addr constant [17 x i8] c"Send failure: %s\00", align 1
@.str.35 = private unnamed_addr constant [28 x i8] c"send(len=%zu) -> %d, err=%d\00", align 1

; Function Attrs: nounwind uwtable
define internal i64 @cf_socket_send(ptr noundef %0, ptr noundef %1, ptr noundef %2, i64 noundef %3, i1 noundef zeroext %4, ptr noundef %5) #0 {
  %7 = alloca ptr, align 8
  %8 = alloca ptr, align 8
  %9 = alloca ptr, align 8
  %10 = alloca i64, align 8
  %11 = alloca i8, align 1
  %12 = alloca ptr, align 8
  %13 = alloca ptr, align 8
  %14 = alloca i32, align 4
  %15 = alloca i64, align 8
  %16 = alloca i64, align 8
  %17 = alloca i32, align 4
  %18 = alloca [256 x i8], align 16
  store ptr %0, ptr %7, align 8, !tbaa !118
  store ptr %1, ptr %8, align 8, !tbaa !23
  store ptr %2, ptr %9, align 8, !tbaa !117
  store i64 %3, ptr %10, align 8, !tbaa !115
  %19 = zext i1 %4 to i8
  store i8 %19, ptr %11, align 1, !tbaa !131
  store ptr %5, ptr %12, align 8, !tbaa !117
  call void @llvm.lifetime.start.p0(i64 8, ptr %13) #9
  %20 = load ptr, ptr %7, align 8, !tbaa !118
  %21 = getelementptr inbounds nuw %struct.Curl_cfilter, ptr %20, i32 0, i32 2
  %22 = load ptr, ptr %21, align 8, !tbaa !120
  store ptr %22, ptr %13, align 8, !tbaa !123
  call void @llvm.lifetime.start.p0(i64 4, ptr %14) #9
  call void @llvm.lifetime.start.p0(i64 8, ptr %15) #9
  call void @llvm.lifetime.start.p0(i64 8, ptr %16) #9
  %23 = load i64, ptr %10, align 8, !tbaa !115
  store i64 %23, ptr %16, align 8, !tbaa !115
  %24 = load ptr, ptr %12, align 8, !tbaa !117
  store i32 0, ptr %24, align 4, !tbaa !10
  %25 = load ptr, ptr %7, align 8, !tbaa !118
  %26 = getelementptr inbounds nuw %struct.Curl_cfilter, ptr %25, i32 0, i32 3
  %27 = load ptr, ptr %26, align 8, !tbaa !139
  %28 = getelementptr inbounds nuw %struct.connectdata, ptr %27, i32 0, i32 24
  %29 = load ptr, ptr %7, align 8, !tbaa !118
  %30 = getelementptr inbounds nuw %struct.Curl_cfilter, ptr %29, i32 0, i32 4
  %31 = load i32, ptr %30, align 8, !tbaa !145
  %32 = sext i32 %31 to i64
  %33 = getelementptr inbounds [2 x i32], ptr %28, i64 0, i64 %32
  %34 = load i32, ptr %33, align 4, !tbaa !10
  store i32 %34, ptr %14, align 4, !tbaa !10
  %35 = load ptr, ptr %13, align 8, !tbaa !123
  %36 = getelementptr inbounds nuw %struct.cf_socket_ctx, ptr %35, i32 0, i32 2
  %37 = load i32, ptr %36, align 8, !tbaa !137
  %38 = load ptr, ptr %7, align 8, !tbaa !118
  %39 = getelementptr inbounds nuw %struct.Curl_cfilter, ptr %38, i32 0, i32 3
  %40 = load ptr, ptr %39, align 8, !tbaa !139
  %41 = getelementptr inbounds nuw %struct.connectdata, ptr %40, i32 0, i32 24
  %42 = load ptr, ptr %7, align 8, !tbaa !118
  %43 = getelementptr inbounds nuw %struct.Curl_cfilter, ptr %42, i32 0, i32 4
  %44 = load i32, ptr %43, align 8, !tbaa !145
  %45 = sext i32 %44 to i64
  %46 = getelementptr inbounds [2 x i32], ptr %41, i64 0, i64 %45
  store i32 %37, ptr %46, align 4, !tbaa !10
  %47 = load ptr, ptr %13, align 8, !tbaa !123
  %48 = getelementptr inbounds nuw %struct.cf_socket_ctx, ptr %47, i32 0, i32 2
  %49 = load i32, ptr %48, align 8, !tbaa !137
  %50 = load ptr, ptr %9, align 8, !tbaa !117
  %51 = load i64, ptr %10, align 8, !tbaa !115
  %52 = call i64 @send(i32 noundef %49, ptr noundef %50, i64 noundef %51, i32 noundef 16384)
  store i64 %52, ptr %15, align 8, !tbaa !115
  %53 = load i64, ptr %15, align 8, !tbaa !115
  %54 = icmp eq i64 -1, %53
  br i1 %54, label %55, label %82

55:                                               ; preds = %6
  call void @llvm.lifetime.start.p0(i64 4, ptr %17) #9
  %56 = call ptr @__errno_location() #11
  %57 = load i32, ptr %56, align 4, !tbaa !10
  store i32 %57, ptr %17, align 4, !tbaa !10
  %58 = load i32, ptr %17, align 4, !tbaa !10
  %59 = icmp eq i32 11, %58
  br i1 %59, label %69, label %60

60:                                               ; preds = %55
  %61 = load i32, ptr %17, align 4, !tbaa !10
  %62 = icmp eq i32 11, %61
  br i1 %62, label %69, label %63

63:                                               ; preds = %60
  %64 = load i32, ptr %17, align 4, !tbaa !10
  %65 = icmp eq i32 4, %64
  br i1 %65, label %69, label %66

66:                                               ; preds = %63
  %67 = load i32, ptr %17, align 4, !tbaa !10
  %68 = icmp eq i32 115, %67
  br i1 %68, label %69, label %71

69:                                               ; preds = %66, %63, %60, %55
  %70 = load ptr, ptr %12, align 8, !tbaa !117
  store i32 81, ptr %70, align 4, !tbaa !10
  br label %81

71:                                               ; preds = %66
  call void @llvm.lifetime.start.p0(i64 256, ptr %18) #9
  %72 = load ptr, ptr %8, align 8, !tbaa !23
  %73 = load i32, ptr %17, align 4, !tbaa !10
  %74 = getelementptr inbounds [256 x i8], ptr %18, i64 0, i64 0
  %75 = call ptr @Curl_strerror(i32 noundef %73, ptr noundef %74, i64 noundef 256)
  call void (ptr, ptr, ...) @Curl_failf(ptr noundef %72, ptr noundef @.str.34, ptr noundef %75)
  %76 = load i32, ptr %17, align 4, !tbaa !10
  %77 = load ptr, ptr %8, align 8, !tbaa !23
  %78 = getelementptr inbounds nuw %struct.Curl_easy, ptr %77, i32 0, i32 21
  %79 = getelementptr inbounds nuw %struct.UrlState, ptr %78, i32 0, i32 11
  store i32 %76, ptr %79, align 8, !tbaa !143
  %80 = load ptr, ptr %12, align 8, !tbaa !117
  store i32 55, ptr %80, align 4, !tbaa !10
  call void @llvm.lifetime.end.p0(i64 256, ptr %18) #9
  br label %81

81:                                               ; preds = %71, %69
  call void @llvm.lifetime.end.p0(i64 4, ptr %17) #9
  br label %82

82:                                               ; preds = %81, %6
  br label %83

83:                                               ; preds = %82
  %84 = load ptr, ptr %8, align 8, !tbaa !23
  %85 = icmp ne ptr %84, null
  br i1 %85, label %86, label %127

86:                                               ; preds = %83
  %87 = load ptr, ptr %8, align 8, !tbaa !23
  %88 = getelementptr inbounds nuw %struct.Curl_easy, ptr %87, i32 0, i32 16
  %89 = getelementptr inbounds nuw %struct.UserDefined, ptr %88, i32 0, i32 119
  %90 = load i64, ptr %89, align 2
  %91 = lshr i64 %90, 31
  %92 = and i64 %91, 1
  %93 = trunc i64 %92 to i32
  %94 = icmp ne i32 %93, 0
  br i1 %94, label %95, label %127

95:                                               ; preds = %86
  %96 = load ptr, ptr %8, align 8, !tbaa !23
  %97 = getelementptr inbounds nuw %struct.Curl_easy, ptr %96, i32 0, i32 21
  %98 = getelementptr inbounds nuw %struct.UrlState, ptr %97, i32 0, i32 50
  %99 = load ptr, ptr %98, align 8, !tbaa !125
  %100 = icmp ne ptr %99, null
  br i1 %100, label %101, label %109

101:                                              ; preds = %95
  %102 = load ptr, ptr %8, align 8, !tbaa !23
  %103 = getelementptr inbounds nuw %struct.Curl_easy, ptr %102, i32 0, i32 21
  %104 = getelementptr inbounds nuw %struct.UrlState, ptr %103, i32 0, i32 50
  %105 = load ptr, ptr %104, align 8, !tbaa !125
  %106 = getelementptr inbounds nuw %struct.curl_trc_feat, ptr %105, i32 0, i32 1
  %107 = load i32, ptr %106, align 8, !tbaa !126
  %108 = icmp sge i32 %107, 1
  br i1 %108, label %109, label %127

109:                                              ; preds = %101, %95
  %110 = load ptr, ptr %7, align 8, !tbaa !118
  %111 = icmp ne ptr %110, null
  br i1 %111, label %112, label %127

112:                                              ; preds = %109
  %113 = load ptr, ptr %7, align 8, !tbaa !118
  %114 = getelementptr inbounds nuw %struct.Curl_cfilter, ptr %113, i32 0, i32 0
  %115 = load ptr, ptr %114, align 8, !tbaa !128
  %116 = getelementptr inbounds nuw %struct.Curl_cftype, ptr %115, i32 0, i32 2
  %117 = load i32, ptr %116, align 4, !tbaa !129
  %118 = icmp sge i32 %117, 1
  br i1 %118, label %119, label %127

119:                                              ; preds = %112
  %120 = load ptr, ptr %8, align 8, !tbaa !23
  %121 = load ptr, ptr %7, align 8, !tbaa !118
  %122 = load i64, ptr %16, align 8, !tbaa !115
  %123 = load i64, ptr %15, align 8, !tbaa !115
  %124 = trunc i64 %123 to i32
  %125 = load ptr, ptr %12, align 8, !tbaa !117
  %126 = load i32, ptr %125, align 4, !tbaa !10
  call void (ptr, ptr, ptr, ...) @Curl_trc_cf_infof(ptr noundef %120, ptr noundef %121, ptr noundef @.str.35, i64 noundef %122, i32 noundef %124, i32 noundef %126)
  br label %127

127:                                              ; preds = %119, %112, %109, %101, %86, %83
  br label %128

128:                                              ; preds = %127
  br label %129

129:                                              ; preds = %128
  %130 = load i32, ptr %14, align 4, !tbaa !10
  %131 = load ptr, ptr %7, align 8, !tbaa !118
  %132 = getelementptr inbounds nuw %struct.Curl_cfilter, ptr %131, i32 0, i32 3
  %133 = load ptr, ptr %132, align 8, !tbaa !139
  %134 = getelementptr inbounds nuw %struct.connectdata, ptr %133, i32 0, i32 24
  %135 = load ptr, ptr %7, align 8, !tbaa !118
  %136 = getelementptr inbounds nuw %struct.Curl_cfilter, ptr %135, i32 0, i32 4
  %137 = load i32, ptr %136, align 8, !tbaa !145
  %138 = sext i32 %137 to i64
  %139 = getelementptr inbounds [2 x i32], ptr %134, i64 0, i64 %138
  store i32 %130, ptr %139, align 4, !tbaa !10
  %140 = load i64, ptr %15, align 8, !tbaa !115
  call void @llvm.lifetime.end.p0(i64 8, ptr %16) #9
  call void @llvm.lifetime.end.p0(i64 8, ptr %15) #9
  call void @llvm.lifetime.end.p0(i64 4, ptr %14) #9
  call void @llvm.lifetime.end.p0(i64 8, ptr %13) #9
  ret i64 %140
}