; Function Attrs: nounwind uwtable
define internal i64 @cf_socket_send(ptr noundef %0, ptr noundef %1, ptr noundef %2, i64 noundef %3, i1 zeroext %4, ptr noundef captures(none) initializes((0, 4)) %5) #2 {
  %7 = alloca [256 x i8], align 16
  %8 = getelementptr inbounds nuw i8, ptr %0, i64 16
  %9 = load ptr, ptr %8, align 8, !tbaa !104
  store i32 0, ptr %5, align 4, !tbaa !87
  %10 = getelementptr inbounds nuw i8, ptr %0, i64 24
  %11 = load ptr, ptr %10, align 8, !tbaa !118
  %12 = getelementptr inbounds nuw i8, ptr %11, i64 568
  %13 = getelementptr inbounds nuw i8, ptr %0, i64 32
  %14 = load i32, ptr %13, align 8, !tbaa !126
  %15 = sext i32 %14 to i64
  %16 = getelementptr inbounds [2 x i32], ptr %12, i64 0, i64 %15
  %17 = load i32, ptr %16, align 4, !tbaa !87
  %18 = getelementptr inbounds nuw i8, ptr %9, i64 152
  %19 = load i32, ptr %18, align 8, !tbaa !116
  store i32 %19, ptr %16, align 4, !tbaa !87
  %20 = tail call i64 @send(i32 noundef %19, ptr noundef %2, i64 noundef %3, i32 noundef 16384) #13
  %21 = icmp eq i64 %20, -1
  br i1 %21, label %22, label %28

22:                                               ; preds = %6
  %23 = tail call ptr @__errno_location() #15
  %24 = load i32, ptr %23, align 4, !tbaa !87
  switch i32 %24, label %.thread [
    i32 115, label %25
    i32 11, label %25
    i32 4, label %25
  ]

25:                                               ; preds = %22, %22, %22
  store i32 81, ptr %5, align 4, !tbaa !87
  br label %28

.thread:                                          ; preds = %22
  call void @llvm.lifetime.start.p0(i64 256, ptr nonnull %7) #13
  %26 = call ptr @Curl_strerror(i32 noundef %24, ptr noundef nonnull %7, i64 noundef 256) #13
  call void (ptr, ptr, ...) @Curl_failf(ptr noundef %1, ptr noundef nonnull @.str.34, ptr noundef %26) #13
  %27 = getelementptr inbounds nuw i8, ptr %1, i64 3240
  store i32 %24, ptr %27, align 8, !tbaa !122
  store i32 55, ptr %5, align 4, !tbaa !87
  call void @llvm.lifetime.end.p0(i64 256, ptr nonnull %7) #13
  br label %29

28:                                               ; preds = %25, %6
  %.not = icmp eq ptr %1, null
  br i1 %.not, label %48, label %29

29:                                               ; preds = %.thread, %28
  %30 = getelementptr inbounds nuw i8, ptr %1, i64 2658
  %31 = load i64, ptr %30, align 2
  %32 = and i64 %31, 2147483648
  %.not45 = icmp eq i64 %32, 0
  br i1 %.not45, label %48, label %33

33:                                               ; preds = %29
  %34 = getelementptr inbounds nuw i8, ptr %1, i64 4864
  %35 = load ptr, ptr %34, align 8, !tbaa !108
  %.not46 = icmp eq ptr %35, null
  br i1 %.not46, label %40, label %36

36:                                               ; preds = %33
  %37 = getelementptr inbounds nuw i8, ptr %35, i64 8
  %38 = load i32, ptr %37, align 8, !tbaa !109
  %39 = icmp sgt i32 %38, 0
  br i1 %39, label %40, label %48

40:                                               ; preds = %33, %36
  %41 = load ptr, ptr %0, align 8, !tbaa !111
  %42 = getelementptr inbounds nuw i8, ptr %41, i64 12
  %43 = load i32, ptr %42, align 4, !tbaa !112
  %44 = icmp sgt i32 %43, 0
  br i1 %44, label %45, label %48

45:                                               ; preds = %40
  %46 = trunc i64 %20 to i32
  %47 = load i32, ptr %5, align 4, !tbaa !87
  call void (ptr, ptr, ptr, ...) @Curl_trc_cf_infof(ptr noundef nonnull %1, ptr noundef nonnull %0, ptr noundef nonnull @.str.35, i64 noundef %3, i32 noundef %46, i32 noundef %47) #13
  br label %48

48:                                               ; preds = %45, %40, %36, %29, %28
  %49 = load ptr, ptr %10, align 8, !tbaa !118
  %50 = getelementptr inbounds nuw i8, ptr %49, i64 568
  %51 = load i32, ptr %13, align 8, !tbaa !126
  %52 = sext i32 %51 to i64
  %53 = getelementptr inbounds [2 x i32], ptr %50, i64 0, i64 %52
  store i32 %17, ptr %53, align 4, !tbaa !87
  ret i64 %20
}